; Function Attrs: nofree nosync nounwind memory(readwrite, inaccessiblemem: none) uwtable
define void @Dch_ManResimulateSolved_rec(ptr noundef %0, ptr noundef captures(none) %1) local_unnamed_addr #3 {
  %3 = getelementptr inbounds nuw i8, ptr %0, i64 8
  %4 = load ptr, ptr %3, align 8, !tbaa !3
  %5 = getelementptr i8, ptr %4, i64 312
  %.val = load i32, ptr %5, align 8, !tbaa !17
  %6 = getelementptr i8, ptr %1, i64 32
  %.val25 = load i32, ptr %6, align 8, !tbaa !26
  %.not = icmp eq i32 %.val25, %.val
  br i1 %.not, label %79, label %7

7:                                                ; preds = %2
  store i32 %.val, ptr %6, align 8, !tbaa !26
  %8 = getelementptr i8, ptr %1, i64 24
  %.val27 = load i64, ptr %8, align 8
  %9 = and i64 %.val27, 7
  %.not41 = icmp eq i64 %9, 2
  br i1 %.not41, label %10, label %30

10:                                               ; preds = %7
  %11 = getelementptr i8, ptr %1, i64 40
  %.val28 = load ptr, ptr %11, align 8, !tbaa !44
  %12 = getelementptr i8, ptr %0, i64 56
  %.val30 = load ptr, ptr %12, align 8, !tbaa !45
  %13 = getelementptr i8, ptr %.val28, i64 36
  %.val31 = load i32, ptr %13, align 4, !tbaa !27
  %14 = sext i32 %.val31 to i64
  %15 = getelementptr inbounds i32, ptr %.val30, i64 %14
  %16 = load i32, ptr %15, align 4, !tbaa !29
  %.not24 = icmp eq i32 %16, 0
  br i1 %.not24, label %26, label %17

17:                                               ; preds = %10
  %18 = getelementptr inbounds nuw i8, ptr %0, i64 40
  %19 = load ptr, ptr %18, align 8, !tbaa !46
  %20 = getelementptr i8, ptr %19, i64 328
  %.val34 = load ptr, ptr %20, align 8, !tbaa !47
  %21 = sext i32 %16 to i64
  %22 = getelementptr inbounds i32, ptr %.val34, i64 %21
  %23 = load i32, ptr %22, align 4, !tbaa !29
  %24 = icmp eq i32 %23, 1
  %25 = select i1 %24, i64 32, i64 0
  br label %26

26:                                               ; preds = %10, %17
  %27 = phi i64 [ %25, %17 ], [ 0, %10 ]
  %28 = and i64 %.val27, -38
  %29 = or disjoint i64 %27, %28
  store i64 %29, ptr %8, align 8
  br label %79

30:                                               ; preds = %7
  %31 = getelementptr i8, ptr %1, i64 8
  %.val35 = load ptr, ptr %31, align 8, !tbaa !59
  %32 = ptrtoint ptr %.val35 to i64
  %33 = and i64 %32, -2
  %34 = inttoptr i64 %33 to ptr
  tail call void @Dch_ManResimulateSolved_rec(ptr noundef nonnull %0, ptr noundef %34)
  %35 = getelementptr i8, ptr %1, i64 16
  %.val37 = load ptr, ptr %35, align 8, !tbaa !60
  %36 = ptrtoint ptr %.val37 to i64
  %37 = and i64 %36, -2
  %38 = inttoptr i64 %37 to ptr
  tail call void @Dch_ManResimulateSolved_rec(ptr noundef nonnull %0, ptr noundef %38)
  %.val36 = load ptr, ptr %31, align 8, !tbaa !59
  %39 = ptrtoint ptr %.val36 to i64
  %40 = and i64 %39, -2
  %41 = inttoptr i64 %40 to ptr
  %42 = getelementptr inbounds nuw i8, ptr %41, i64 24
  %43 = load i64, ptr %42, align 8
  %44 = trunc i64 %43 to i32
  %45 = lshr i32 %44, 5
  %46 = trunc i64 %39 to i32
  %47 = xor i32 %45, %46
  %.val38 = load ptr, ptr %35, align 8, !tbaa !60
  %48 = ptrtoint ptr %.val38 to i64
  %49 = and i64 %48, -2
  %50 = inttoptr i64 %49 to ptr
  %51 = getelementptr inbounds nuw i8, ptr %50, i64 24
  %52 = load i64, ptr %51, align 8
  %53 = trunc i64 %52 to i32
  %54 = lshr i32 %53, 5
  %55 = trunc i64 %48 to i32
  %56 = and i32 %55, 1
  %57 = xor i32 %54, %56
  %58 = and i32 %57, %47
  %59 = load i64, ptr %8, align 8
  %60 = shl nuw i32 %58, 5
  %61 = and i32 %60, 32
  %62 = zext nneg i32 %61 to i64
  %63 = and i64 %59, -33
  %64 = or disjoint i64 %63, %62
  store i64 %64, ptr %8, align 8
  %65 = getelementptr i8, ptr %1, i64 40
  %.val29 = load ptr, ptr %65, align 8, !tbaa !44
  %66 = ptrtoint ptr %.val29 to i64
  %67 = and i64 %66, -2
  %68 = inttoptr i64 %67 to ptr
  %69 = getelementptr i8, ptr %0, i64 56
  %.val32 = load ptr, ptr %69, align 8, !tbaa !45
  %70 = getelementptr i8, ptr %68, i64 36
  %.val33 = load i32, ptr %70, align 4, !tbaa !27
  %71 = sext i32 %.val33 to i64
  %72 = getelementptr inbounds i32, ptr %.val32, i64 %71
  %73 = load i32, ptr %72, align 4, !tbaa !29
  %74 = icmp sgt i32 %73, 0
  br i1 %74, label %75, label %79

75:                                               ; preds = %30
  %76 = getelementptr inbounds nuw i8, ptr %0, i64 104
  %77 = load i32, ptr %76, align 8, !tbaa !61
  %78 = add nsw i32 %77, 1
  store i32 %78, ptr %76, align 8, !tbaa !61
  br label %79

79:                                               ; preds = %2, %75, %30, %26
  ret void
}